; Function Attrs: mustprogress uwtable
define void @_ZNK6icu_7713SimpleFactory16updateVisibleIDsERNS_9HashtableER10UErrorCode(ptr noundef nonnull align 8 dereferenceable(81) %0, ptr noundef nonnull readonly align 8 captures(none) dereferenceable(88) %1, ptr noundef nonnull align 4 dereferenceable(4) %2) unnamed_addr #0 align 2 personality ptr @__gxx_personality_v0 {
  %4 = getelementptr inbounds nuw i8, ptr %0, i64 80
  %5 = load i8, ptr %4, align 8, !tbaa !18
  %.not = icmp eq i8 %5, 0
  br i1 %.not, label %15, label %6

6:                                                ; preds = %3
  %7 = load ptr, ptr %1, align 8, !tbaa !21
  %8 = tail call noundef ptr @_ZN6icu_777UMemorynwEm(i64 noundef 64) #17
  %9 = icmp eq ptr %8, null
  br i1 %9, label %_ZN6icu_779Hashtable3putERKNS_13UnicodeStringEPvR10UErrorCode.exit, label %10

10:                                               ; preds = %6
  %11 = getelementptr inbounds nuw i8, ptr %0, i64 16
  invoke void @_ZN6icu_7713UnicodeStringC1ERKS0_(ptr noundef nonnull align 8 dereferenceable(64) %8, ptr noundef nonnull align 8 dereferenceable(64) %11)
          to label %_ZN6icu_779Hashtable3putERKNS_13UnicodeStringEPvR10UErrorCode.exit unwind label %12

12:                                               ; preds = %10
  %13 = landingpad { ptr, i32 }
          cleanup
  tail call void @_ZN6icu_777UMemorydlEPv(ptr noundef nonnull %8) #17
  resume { ptr, i32 } %13

_ZN6icu_779Hashtable3putERKNS_13UnicodeStringEPvR10UErrorCode.exit: ; preds = %6, %10
  %14 = tail call noundef ptr @uhash_put_77(ptr noundef %7, ptr noundef %8, ptr noundef nonnull %0, ptr noundef nonnull align 4 dereferenceable(4) %2)
  br label %19

15:                                               ; preds = %3
  %16 = getelementptr inbounds nuw i8, ptr %0, i64 16
  %17 = load ptr, ptr %1, align 8, !tbaa !21
  %18 = tail call noundef ptr @uhash_remove_77(ptr noundef %17, ptr noundef nonnull align 8 dereferenceable(64) %16)
  br label %19

19:                                               ; preds = %15, %_ZN6icu_779Hashtable3putERKNS_13UnicodeStringEPvR10UErrorCode.exit
  ret void
}